target datalayout = "e-m:e-p270:32:32-p271:32:32-p272:64:64-i64:64-i128:128-f80:128-n8:16:32:64-S128"
target triple = "x86_64-pc-linux-gnu"

@glad_glGetError = external global ptr, align 8
@.str.6 = private unnamed_addr constant [19 x i8] c"OpenGL error = %d\0A\00", align 1

; Function Attrs: mustprogress uwtable
define dso_local void @_Z12CheckErrorGLv() #0 {
  %1 = alloca i32, align 4
  call void @llvm.lifetime.start.p0(i64 4, ptr %1) #5
  %2 = load ptr, ptr @glad_glGetError, align 8, !tbaa !4
  %3 = call i32 %2()
  store i32 %3, ptr %1, align 4, !tbaa !10
  %4 = load i32, ptr %1, align 4, !tbaa !10
  %5 = icmp ne i32 %4, 0
  br i1 %5, label %6, label %9

6:                                                ; preds = %0
  %7 = load i32, ptr %1, align 4, !tbaa !10
  %8 = call i32 (ptr, ...) @printf(ptr noundef @.str.6, i32 noundef %7)
  br label %9

9:                                                ; preds = %6, %0
  call void @llvm.lifetime.end.p0(i64 4, ptr %1) #5
  ret void
}