; Function Attrs: mustprogress uwtable
define dso_local void @_Z12CheckErrorGLv() local_unnamed_addr #0 {
  %1 = load ptr, ptr @glad_glGetError, align 8, !tbaa !4
  %2 = tail call i32 %1()
  %.not = icmp eq i32 %2, 0
  br i1 %.not, label %5, label %3

3:                                                ; preds = %0
  %4 = tail call i32 (ptr, ...) @printf(ptr noundef nonnull dereferenceable(1) @.str.6, i32 noundef %2)
  br label %5

5:                                                ; preds = %3, %0
  ret void
}